target datalayout = "e-m:e-p270:32:32-p271:32:32-p272:64:64-i64:64-i128:128-f80:128-n8:16:32:64-S128"
target triple = "x86_64-pc-linux-gnu"

; Function Attrs: mustprogress nounwind uwtable
define noundef i32 @_Z16coco_string_hashPKw(ptr noundef %0) #0 {
  %2 = alloca i32, align 4
  %3 = alloca ptr, align 8
  %4 = alloca i32, align 4
  store ptr %0, ptr %3, align 8
  store i32 0, ptr %4, align 4
  %5 = load ptr, ptr %3, align 8
  %6 = icmp ne ptr %5, null
  br i1 %6, label %8, label %7

7:                                                ; preds = %1
  store i32 0, ptr %2, align 4
  br label %29

8:                                                ; preds = %1
  br label %9

9:                                                ; preds = %13, %8
  %10 = load ptr, ptr %3, align 8
  %11 = load i32, ptr %10, align 4
  %12 = icmp ne i32 %11, 0
  br i1 %12, label %13, label %21

13:                                               ; preds = %9
  %14 = load i32, ptr %4, align 4
  %15 = mul nsw i32 %14, 7
  %16 = load ptr, ptr %3, align 8
  %17 = load i32, ptr %16, align 4
  %18 = xor i32 %15, %17
  store i32 %18, ptr %4, align 4
  %19 = load ptr, ptr %3, align 8
  %20 = getelementptr inbounds i32, ptr %19, i32 1
  store ptr %20, ptr %3, align 8
  br label %9, !llvm.loop !11

21:                                               ; preds = %9
  %22 = load i32, ptr %4, align 4
  %23 = icmp slt i32 %22, 0
  br i1 %23, label %24, label %27

24:                                               ; preds = %21
  %25 = load i32, ptr %4, align 4
  %26 = sub nsw i32 0, %25
  store i32 %26, ptr %4, align 4
  br label %27

27:                                               ; preds = %24, %21
  %28 = load i32, ptr %4, align 4
  store i32 %28, ptr %2, align 4
  br label %29

29:                                               ; preds = %27, %7
  %30 = load i32, ptr %2, align 4
  ret i32 %30
}