; Function Attrs: mustprogress nofree norecurse nosync nounwind willreturn memory(read, inaccessiblemem: none) uwtable
define noundef i32 @_Z16coco_string_hashPKw(ptr noundef readonly %0) local_unnamed_addr #11 {
  %.not = icmp eq ptr %0, null
  br i1 %.not, label %8, label %.preheader

.preheader:                                       ; preds = %1
  %2 = load i32, ptr %0, align 4
  %.not1213 = icmp eq i32 %2, 0
  br i1 %.not1213, label %._crit_edge, label %.lr.ph

.lr.ph:                                           ; preds = %.preheader, %.lr.ph
  %3 = phi i32 [ %7, %.lr.ph ], [ %2, %.preheader ]
  %.015 = phi i32 [ %5, %.lr.ph ], [ 0, %.preheader ]
  %.0814 = phi ptr [ %6, %.lr.ph ], [ %0, %.preheader ]
  %4 = mul nsw i32 %.015, 7
  %5 = xor i32 %4, %3
  %6 = getelementptr inbounds i8, ptr %.0814, i64 4
  %7 = load i32, ptr %6, align 4
  %.not12 = icmp eq i32 %7, 0
  br i1 %.not12, label %._crit_edge, label %.lr.ph, !llvm.loop !11

._crit_edge:                                      ; preds = %.lr.ph, %.preheader
  %.0.lcssa = phi i32 [ 0, %.preheader ], [ %5, %.lr.ph ]
  %spec.select = tail call i32 @llvm.abs.i32(i32 %.0.lcssa, i1 true)
  br label %8

8:                                                ; preds = %1, %._crit_edge
  %.09 = phi i32 [ %spec.select, %._crit_edge ], [ 0, %1 ]
  ret i32 %.09
}